target datalayout = "e-m:e-p270:32:32-p271:32:32-p272:64:64-i64:64-i128:128-f80:128-n8:16:32:64-S128"
target triple = "x86_64-pc-linux-gnu"

%struct.redisOptions = type { i32, i32, ptr, ptr, %union.anon, ptr, ptr, ptr, ptr }
%union.anon = type { %struct.anon.1 }
%struct.anon.1 = type { ptr, ptr, i32 }
%struct.timeval = type { i64, i64 }

; Function Attrs: nounwind uwtable
define ptr @redisConnectWithTimeout(ptr noundef %0, i32 noundef %1, i64 %2, i64 %3) #0 {
  %5 = alloca %struct.timeval, align 8
  %6 = alloca ptr, align 8
  %7 = alloca i32, align 4
  %8 = alloca %struct.redisOptions, align 8
  %9 = getelementptr inbounds nuw { i64, i64 }, ptr %5, i32 0, i32 0
  store i64 %2, ptr %9, align 8
  %10 = getelementptr inbounds nuw { i64, i64 }, ptr %5, i32 0, i32 1
  store i64 %3, ptr %10, align 8
  store ptr %0, ptr %6, align 8, !tbaa !26
  store i32 %1, ptr %7, align 4, !tbaa !29
  call void @llvm.lifetime.start.p0(i64 80, ptr %8) #10
  call void @llvm.memset.p0.i64(ptr align 8 %8, i8 0, i64 80, i1 false)
  br label %11

11:                                               ; preds = %4
  %12 = getelementptr inbounds nuw %struct.redisOptions, ptr %8, i32 0, i32 0
  store i32 0, ptr %12, align 8, !tbaa !76
  %13 = load ptr, ptr %6, align 8, !tbaa !26
  %14 = getelementptr inbounds nuw %struct.redisOptions, ptr %8, i32 0, i32 4
  %15 = getelementptr inbounds nuw %struct.anon.1, ptr %14, i32 0, i32 1
  store ptr %13, ptr %15, align 8, !tbaa !30
  %16 = load i32, ptr %7, align 4, !tbaa !29
  %17 = getelementptr inbounds nuw %struct.redisOptions, ptr %8, i32 0, i32 4
  %18 = getelementptr inbounds nuw %struct.anon.1, ptr %17, i32 0, i32 2
  store i32 %16, ptr %18, align 8, !tbaa !30
  br label %19

19:                                               ; preds = %11
  br label %20

20:                                               ; preds = %19
  %21 = getelementptr inbounds nuw %struct.redisOptions, ptr %8, i32 0, i32 2
  store ptr %5, ptr %21, align 8, !tbaa !74
  %22 = call ptr @redisConnectWithOptions(ptr noundef %8)
  call void @llvm.lifetime.end.p0(i64 80, ptr %8) #10
  ret ptr %22
}