; Function Attrs: nounwind uwtable
define ptr @redisConnectWithTimeout(ptr noundef %0, i32 noundef %1, i64 %2, i64 %3) local_unnamed_addr #0 {
  %5 = alloca %struct.timeval, align 8
  %6 = alloca %struct.redisOptions, align 8
  store i64 %2, ptr %5, align 8
  %7 = getelementptr inbounds nuw i8, ptr %5, i64 8
  store i64 %3, ptr %7, align 8
  call void @llvm.lifetime.start.p0(i64 80, ptr nonnull %6) #13
  %8 = getelementptr inbounds nuw i8, ptr %6, i64 32
  call void @llvm.memset.p0.i64(ptr noundef nonnull align 8 dereferenceable(80) %6, i8 0, i64 80, i1 false)
  store ptr %0, ptr %8, align 8, !tbaa !22
  %9 = getelementptr inbounds nuw i8, ptr %6, i64 40
  store i32 %1, ptr %9, align 8, !tbaa !22
  %10 = getelementptr inbounds nuw i8, ptr %6, i64 8
  store ptr %5, ptr %10, align 8, !tbaa !66
  %11 = call ptr @redisConnectWithOptions(ptr noundef nonnull %6)
  call void @llvm.lifetime.end.p0(i64 80, ptr nonnull %6) #13
  ret ptr %11
}